target datalayout = "e-m:e-p270:32:32-p271:32:32-p272:64:64-i64:64-i128:128-f80:128-n8:16:32:64-S128"
target triple = "x86_64-pc-linux-gnu"

%"class.icu_77::UnicodeSetStringSpan" = type { [8 x i8], %"class.icu_77::UnicodeSet", ptr, ptr, ptr, ptr, ptr, i32, i32, i32, i8, [32 x i32] }
%"class.icu_77::UnicodeSet" = type <{ %"class.icu_77::UnicodeFilter", ptr, i32, i32, i8, [7 x i8], ptr, ptr, i32, [4 x i8], ptr, i32, [4 x i8], ptr, ptr, [25 x i32], [4 x i8] }>
%"class.icu_77::UnicodeFilter" = type { %"class.icu_77::UnicodeFunctor", %"class.icu_77::UnicodeMatcher" }
%"class.icu_77::UnicodeFunctor" = type { %"class.icu_77::UObject" }
%"class.icu_77::UObject" = type { ptr }
%"class.icu_77::UnicodeMatcher" = type { ptr }
%"class.icu_77::UVector" = type { %"class.icu_77::UObject", i32, i32, ptr, ptr, ptr }

; Function Attrs: inlinehint mustprogress nounwind uwtable
define internal noundef signext i8 @_ZN6icu_77L8matches8EPKhS1_i(ptr noundef %0, ptr noundef %1, i32 noundef %2) #3 {
  %4 = alloca i8, align 1
  %5 = alloca ptr, align 8
  %6 = alloca ptr, align 8
  %7 = alloca i32, align 4
  store ptr %0, ptr %5, align 8, !tbaa !39
  store ptr %1, ptr %6, align 8, !tbaa !39
  store i32 %2, ptr %7, align 4, !tbaa !12
  br label %8

8:                                                ; preds = %20, %3
  %9 = load ptr, ptr %5, align 8, !tbaa !39
  %10 = getelementptr inbounds nuw i8, ptr %9, i32 1
  store ptr %10, ptr %5, align 8, !tbaa !39
  %11 = load i8, ptr %9, align 1, !tbaa !33
  %12 = zext i8 %11 to i32
  %13 = load ptr, ptr %6, align 8, !tbaa !39
  %14 = getelementptr inbounds nuw i8, ptr %13, i32 1
  store ptr %14, ptr %6, align 8, !tbaa !39
  %15 = load i8, ptr %13, align 1, !tbaa !33
  %16 = zext i8 %15 to i32
  %17 = icmp ne i32 %12, %16
  br i1 %17, label %18, label %19

18:                                               ; preds = %8
  store i8 0, ptr %4, align 1
  br label %25

19:                                               ; preds = %8
  br label %20

20:                                               ; preds = %19
  %21 = load i32, ptr %7, align 4, !tbaa !12
  %22 = add nsw i32 %21, -1
  store i32 %22, ptr %7, align 4, !tbaa !12
  %23 = icmp sgt i32 %22, 0
  br i1 %23, label %8, label %24, !llvm.loop !82

24:                                               ; preds = %20
  store i8 1, ptr %4, align 1
  br label %25

25:                                               ; preds = %24, %18
  %26 = load i8, ptr %4, align 1
  ret i8 %26
}

; Function Attrs: inlinehint mustprogress uwtable
define internal noundef i32 @_ZN6icu_77L15spanOneBackUTF8ERKNS_10UnicodeSetEPKhi(ptr noundef nonnull align 8 dereferenceable(200) %0, ptr noundef %1, i32 noundef %2) #4 {
  %4 = alloca i32, align 4
  %5 = alloca ptr, align 8
  %6 = alloca ptr, align 8
  %7 = alloca i32, align 4
  %8 = alloca i32, align 4
  %9 = alloca i32, align 4
  %10 = alloca i32, align 4
  store ptr %0, ptr %5, align 8, !tbaa !8
  store ptr %1, ptr %6, align 8, !tbaa !39
  store i32 %2, ptr %7, align 4, !tbaa !12
  call void @llvm.lifetime.start.p0(i64 4, ptr %8) #11
  %11 = load ptr, ptr %6, align 8, !tbaa !39
  %12 = load i32, ptr %7, align 4, !tbaa !12
  %13 = sub nsw i32 %12, 1
  %14 = sext i32 %13 to i64
  %15 = getelementptr inbounds i8, ptr %11, i64 %14
  %16 = load i8, ptr %15, align 1, !tbaa !33
  %17 = zext i8 %16 to i32
  store i32 %17, ptr %8, align 4, !tbaa !12
  %18 = load i32, ptr %8, align 4, !tbaa !12
  %19 = and i32 %18, 128
  %20 = icmp eq i32 %19, 0
  br i1 %20, label %21, label %27

21:                                               ; preds = %3
  %22 = load ptr, ptr %5, align 8, !tbaa !8
  %23 = load i32, ptr %8, align 4, !tbaa !12
  %24 = call noundef signext i8 @_ZNK6icu_7710UnicodeSet8containsEi(ptr noundef nonnull align 8 dereferenceable(200) %22, i32 noundef %23)
  %25 = icmp ne i8 %24, 0
  %26 = select i1 %25, i32 1, i32 -1
  store i32 %26, ptr %4, align 4
  store i32 1, ptr %9, align 4
  br label %47

27:                                               ; preds = %3
  call void @llvm.lifetime.start.p0(i64 4, ptr %10) #11
  %28 = load i32, ptr %7, align 4, !tbaa !12
  %29 = sub nsw i32 %28, 1
  store i32 %29, ptr %10, align 4, !tbaa !12
  %30 = load ptr, ptr %6, align 8, !tbaa !39
  %31 = load i32, ptr %8, align 4, !tbaa !12
  %32 = call i32 @utf8_prevCharSafeBody_77(ptr noundef %30, i32 noundef 0, ptr noundef %10, i32 noundef %31, i8 noundef signext -3)
  store i32 %32, ptr %8, align 4, !tbaa !12
  %33 = load i32, ptr %10, align 4, !tbaa !12
  %34 = load i32, ptr %7, align 4, !tbaa !12
  %35 = sub nsw i32 %34, %33
  store i32 %35, ptr %7, align 4, !tbaa !12
  %36 = load ptr, ptr %5, align 8, !tbaa !8
  %37 = load i32, ptr %8, align 4, !tbaa !12
  %38 = call noundef signext i8 @_ZNK6icu_7710UnicodeSet8containsEi(ptr noundef nonnull align 8 dereferenceable(200) %36, i32 noundef %37)
  %39 = icmp ne i8 %38, 0
  br i1 %39, label %40, label %42

40:                                               ; preds = %27
  %41 = load i32, ptr %7, align 4, !tbaa !12
  br label %45

42:                                               ; preds = %27
  %43 = load i32, ptr %7, align 4, !tbaa !12
  %44 = sub nsw i32 0, %43
  br label %45

45:                                               ; preds = %42, %40
  %46 = phi i32 [ %41, %40 ], [ %44, %42 ]
  store i32 %46, ptr %4, align 4
  store i32 1, ptr %9, align 4
  call void @llvm.lifetime.end.p0(i64 4, ptr %10) #11
  br label %47

47:                                               ; preds = %45, %21
  call void @llvm.lifetime.end.p0(i64 4, ptr %8) #11
  %48 = load i32, ptr %4, align 4
  ret i32 %48
}

; Function Attrs: inlinehint mustprogress nounwind uwtable
define linkonce_odr noundef i32 @_ZNK6icu_777UVector4sizeEv(ptr noundef nonnull align 8 dereferenceable(40) %0) #3 comdat align 2 {
  %2 = alloca ptr, align 8
  store ptr %0, ptr %2, align 8, !tbaa !10
  %3 = load ptr, ptr %2, align 8
  %4 = getelementptr inbounds nuw %"class.icu_77::UVector", ptr %3, i32 0, i32 1
  %5 = load i32, ptr %4, align 8, !tbaa !45
  ret i32 %5
}

; Function Attrs: mustprogress uwtable
define noundef i32 @_ZNK6icu_7720UnicodeSetStringSpan15spanNotBackUTF8EPKhi(ptr noundef nonnull align 8 dereferenceable(392) %0, ptr noundef %1, i32 noundef %2) #0 align 2 {
  %4 = alloca i32, align 4
  %5 = alloca ptr, align 8
  %6 = alloca ptr, align 8
  %7 = alloca i32, align 4
  %8 = alloca i32, align 4
  %9 = alloca i32, align 4
  %10 = alloca i32, align 4
  %11 = alloca ptr, align 8
  %12 = alloca i32, align 4
  %13 = alloca i32, align 4
  %14 = alloca ptr, align 8
  %15 = alloca i32, align 4
  store ptr %0, ptr %5, align 8, !tbaa !3
  store ptr %1, ptr %6, align 8, !tbaa !39
  store i32 %2, ptr %7, align 4, !tbaa !12
  %16 = load ptr, ptr %5, align 8
  call void @llvm.lifetime.start.p0(i64 4, ptr %8) #11
  %17 = load i32, ptr %7, align 4, !tbaa !12
  store i32 %17, ptr %8, align 4, !tbaa !12
  call void @llvm.lifetime.start.p0(i64 4, ptr %9) #11
  call void @llvm.lifetime.start.p0(i64 4, ptr %10) #11
  %18 = getelementptr inbounds nuw %"class.icu_77::UnicodeSetStringSpan", ptr %16, i32 0, i32 3
  %19 = load ptr, ptr %18, align 8, !tbaa !32
  %20 = call noundef i32 @_ZNK6icu_777UVector4sizeEv(ptr noundef nonnull align 8 dereferenceable(40) %19)
  store i32 %20, ptr %10, align 4, !tbaa !12
  call void @llvm.lifetime.start.p0(i64 8, ptr %11) #11
  %21 = getelementptr inbounds nuw %"class.icu_77::UnicodeSetStringSpan", ptr %16, i32 0, i32 5
  %22 = load ptr, ptr %21, align 8, !tbaa !26
  store ptr %22, ptr %11, align 8, !tbaa !39
  %23 = getelementptr inbounds nuw %"class.icu_77::UnicodeSetStringSpan", ptr %16, i32 0, i32 10
  %24 = load i8, ptr %23, align 4, !tbaa !31
  %25 = icmp ne i8 %24, 0
  br i1 %25, label %26, label %32

26:                                               ; preds = %3
  %27 = load i32, ptr %10, align 4, !tbaa !12
  %28 = mul nsw i32 3, %27
  %29 = load ptr, ptr %11, align 8, !tbaa !39
  %30 = sext i32 %28 to i64
  %31 = getelementptr inbounds i8, ptr %29, i64 %30
  store ptr %31, ptr %11, align 8, !tbaa !39
  br label %32

32:                                               ; preds = %26, %3
  br label %33

33:                                               ; preds = %110, %32
  %34 = getelementptr inbounds nuw %"class.icu_77::UnicodeSetStringSpan", ptr %16, i32 0, i32 2
  %35 = load ptr, ptr %34, align 8, !tbaa !14
  %36 = load ptr, ptr %6, align 8, !tbaa !39
  %37 = load i32, ptr %8, align 4, !tbaa !12
  %38 = call noundef i32 @_ZNK6icu_7710UnicodeSet12spanBackUTF8EPKci17USetSpanCondition(ptr noundef nonnull align 8 dereferenceable(200) %35, ptr noundef %36, i32 noundef %37, i32 noundef 0)
  store i32 %38, ptr %8, align 4, !tbaa !12
  %39 = load i32, ptr %8, align 4, !tbaa !12
  %40 = icmp eq i32 %39, 0
  br i1 %40, label %41, label %42

41:                                               ; preds = %33
  store i32 0, ptr %4, align 4
  store i32 1, ptr %12, align 4
  br label %114

42:                                               ; preds = %33
  call void @llvm.lifetime.start.p0(i64 4, ptr %13) #11
  %43 = getelementptr inbounds nuw %"class.icu_77::UnicodeSetStringSpan", ptr %16, i32 0, i32 1
  %44 = load ptr, ptr %6, align 8, !tbaa !39
  %45 = load i32, ptr %8, align 4, !tbaa !12
  %46 = call noundef i32 @_ZN6icu_77L15spanOneBackUTF8ERKNS_10UnicodeSetEPKhi(ptr noundef nonnull align 8 dereferenceable(200) %43, ptr noundef %44, i32 noundef %45)
  store i32 %46, ptr %13, align 4, !tbaa !12
  %47 = load i32, ptr %13, align 4, !tbaa !12
  %48 = icmp sgt i32 %47, 0
  br i1 %48, label %49, label %51

49:                                               ; preds = %42
  %50 = load i32, ptr %8, align 4, !tbaa !12
  store i32 %50, ptr %4, align 4
  store i32 1, ptr %12, align 4
  br label %107

51:                                               ; preds = %42
  call void @llvm.lifetime.start.p0(i64 8, ptr %14) #11
  %52 = getelementptr inbounds nuw %"class.icu_77::UnicodeSetStringSpan", ptr %16, i32 0, i32 6
  %53 = load ptr, ptr %52, align 8, !tbaa !27
  store ptr %53, ptr %14, align 8, !tbaa !39
  call void @llvm.lifetime.start.p0(i64 4, ptr %15) #11
  store i32 0, ptr %9, align 4, !tbaa !12
  br label %54

54:                                               ; preds = %99, %51
  %55 = load i32, ptr %9, align 4, !tbaa !12
  %56 = load i32, ptr %10, align 4, !tbaa !12
  %57 = icmp slt i32 %55, %56
  br i1 %57, label %58, label %102

58:                                               ; preds = %54
  %59 = getelementptr inbounds nuw %"class.icu_77::UnicodeSetStringSpan", ptr %16, i32 0, i32 4
  %60 = load ptr, ptr %59, align 8, !tbaa !25
  %61 = load i32, ptr %9, align 4, !tbaa !12
  %62 = sext i32 %61 to i64
  %63 = getelementptr inbounds i32, ptr %60, i64 %62
  %64 = load i32, ptr %63, align 4, !tbaa !12
  store i32 %64, ptr %15, align 4, !tbaa !12
  %65 = load i32, ptr %15, align 4, !tbaa !12
  %66 = icmp ne i32 %65, 0
  br i1 %66, label %67, label %94

67:                                               ; preds = %58
  %68 = load ptr, ptr %11, align 8, !tbaa !39
  %69 = load i32, ptr %9, align 4, !tbaa !12
  %70 = sext i32 %69 to i64
  %71 = getelementptr inbounds i8, ptr %68, i64 %70
  %72 = load i8, ptr %71, align 1, !tbaa !33
  %73 = zext i8 %72 to i32
  %74 = icmp ne i32 %73, 255
  br i1 %74, label %75, label %94

75:                                               ; preds = %67
  %76 = load i32, ptr %15, align 4, !tbaa !12
  %77 = load i32, ptr %8, align 4, !tbaa !12
  %78 = icmp sle i32 %76, %77
  br i1 %78, label %79, label %94

79:                                               ; preds = %75
  %80 = load ptr, ptr %6, align 8, !tbaa !39
  %81 = load i32, ptr %8, align 4, !tbaa !12
  %82 = sext i32 %81 to i64
  %83 = getelementptr inbounds i8, ptr %80, i64 %82
  %84 = load i32, ptr %15, align 4, !tbaa !12
  %85 = sext i32 %84 to i64
  %86 = sub i64 0, %85
  %87 = getelementptr inbounds i8, ptr %83, i64 %86
  %88 = load ptr, ptr %14, align 8, !tbaa !39
  %89 = load i32, ptr %15, align 4, !tbaa !12
  %90 = call noundef signext i8 @_ZN6icu_77L8matches8EPKhS1_i(ptr noundef %87, ptr noundef %88, i32 noundef %89)
  %91 = icmp ne i8 %90, 0
  br i1 %91, label %92, label %94

92:                                               ; preds = %79
  %93 = load i32, ptr %8, align 4, !tbaa !12
  store i32 %93, ptr %4, align 4
  store i32 1, ptr %12, align 4
  br label %106

94:                                               ; preds = %79, %75, %67, %58
  %95 = load i32, ptr %15, align 4, !tbaa !12
  %96 = load ptr, ptr %14, align 8, !tbaa !39
  %97 = sext i32 %95 to i64
  %98 = getelementptr inbounds i8, ptr %96, i64 %97
  store ptr %98, ptr %14, align 8, !tbaa !39
  br label %99

99:                                               ; preds = %94
  %100 = load i32, ptr %9, align 4, !tbaa !12
  %101 = add nsw i32 %100, 1
  store i32 %101, ptr %9, align 4, !tbaa !12
  br label %54, !llvm.loop !88

102:                                              ; preds = %54
  %103 = load i32, ptr %13, align 4, !tbaa !12
  %104 = load i32, ptr %8, align 4, !tbaa !12
  %105 = add nsw i32 %104, %103
  store i32 %105, ptr %8, align 4, !tbaa !12
  store i32 0, ptr %12, align 4
  br label %106

106:                                              ; preds = %102, %92
  call void @llvm.lifetime.end.p0(i64 4, ptr %15) #11
  call void @llvm.lifetime.end.p0(i64 8, ptr %14) #11
  br label %107

107:                                              ; preds = %106, %49
  call void @llvm.lifetime.end.p0(i64 4, ptr %13) #11
  %108 = load i32, ptr %12, align 4
  switch i32 %108, label %114 [
    i32 0, label %109
  ]

109:                                              ; preds = %107
  br label %110

110:                                              ; preds = %109
  %111 = load i32, ptr %8, align 4, !tbaa !12
  %112 = icmp ne i32 %111, 0
  br i1 %112, label %33, label %113, !llvm.loop !89

113:                                              ; preds = %110
  store i32 0, ptr %4, align 4
  store i32 1, ptr %12, align 4
  br label %114

114:                                              ; preds = %113, %107, %41
  call void @llvm.lifetime.end.p0(i64 8, ptr %11) #11
  call void @llvm.lifetime.end.p0(i64 4, ptr %10) #11
  call void @llvm.lifetime.end.p0(i64 4, ptr %9) #11
  call void @llvm.lifetime.end.p0(i64 4, ptr %8) #11
  %115 = load i32, ptr %4, align 4
  ret i32 %115
}