; Function Attrs: mustprogress uwtable
define noundef i32 @_ZNK6icu_7720UnicodeSetStringSpan15spanNotBackUTF8EPKhi(ptr noundef nonnull align 8 dereferenceable(392) %0, ptr noundef %1, i32 noundef %2) local_unnamed_addr #0 align 2 {
  %4 = alloca i32, align 4
  %5 = getelementptr inbounds nuw i8, ptr %0, i64 216
  %6 = load ptr, ptr %5, align 8, !tbaa !23
  %7 = getelementptr inbounds nuw i8, ptr %6, i64 8
  %8 = load i32, ptr %7, align 8, !tbaa !24
  %.fr = freeze i32 %8
  %9 = getelementptr inbounds nuw i8, ptr %0, i64 232
  %10 = load ptr, ptr %9, align 8, !tbaa !37
  %11 = getelementptr inbounds nuw i8, ptr %0, i64 260
  %12 = load i8, ptr %11, align 4, !tbaa !22
  %.not = icmp eq i8 %12, 0
  %13 = mul nsw i32 %.fr, 3
  %14 = sext i32 %13 to i64
  %.038.idx = select i1 %.not, i64 0, i64 %14
  %.038 = getelementptr inbounds i8, ptr %10, i64 %.038.idx
  %15 = getelementptr inbounds nuw i8, ptr %0, i64 208
  %16 = getelementptr inbounds nuw i8, ptr %0, i64 8
  %17 = getelementptr inbounds nuw i8, ptr %0, i64 240
  %.not6063 = icmp sgt i32 %.fr, 0
  %18 = getelementptr inbounds nuw i8, ptr %0, i64 224
  br i1 %.not6063, label %.split.us.preheader, label %.split

.split.us.preheader:                              ; preds = %3
  %wide.trip.count = zext nneg i32 %.fr to i64
  br label %.split.us

.split.us:                                        ; preds = %.split.us.preheader, %._crit_edge.us
  %.033.us = phi i32 [ %62, %._crit_edge.us ], [ %2, %.split.us.preheader ]
  %19 = load ptr, ptr %15, align 8, !tbaa !3
  %20 = call noundef i32 @_ZNK6icu_7710UnicodeSet12spanBackUTF8EPKci17USetSpanCondition(ptr noundef nonnull align 8 dereferenceable(200) %19, ptr noundef %1, i32 noundef %.033.us, i32 noundef 0)
  %21 = icmp eq i32 %20, 0
  br i1 %21, label %_ZN6icu_77L8matches8EPKhS1_i.exit.thread56, label %22

22:                                               ; preds = %.split.us
  %23 = add nsw i32 %20, -1
  %24 = sext i32 %23 to i64
  %25 = getelementptr inbounds i8, ptr %1, i64 %24
  %26 = load i8, ptr %25, align 1, !tbaa !27
  %27 = zext i8 %26 to i32
  %28 = icmp sgt i8 %26, -1
  br i1 %28, label %36, label %_ZN6icu_77L15spanOneBackUTF8ERKNS_10UnicodeSetEPKhi.exit.us

_ZN6icu_77L15spanOneBackUTF8ERKNS_10UnicodeSetEPKhi.exit.us: ; preds = %22
  call void @llvm.lifetime.start.p0(i64 4, ptr nonnull %4) #12
  store i32 %23, ptr %4, align 4, !tbaa !33
  %29 = call i32 @utf8_prevCharSafeBody_77(ptr noundef nonnull %1, i32 noundef 0, ptr noundef nonnull %4, i32 noundef %27, i8 noundef signext -3)
  %30 = load i32, ptr %4, align 4, !tbaa !33
  %31 = sub nsw i32 %20, %30
  %32 = call noundef signext i8 @_ZNK6icu_7710UnicodeSet8containsEi(ptr noundef nonnull align 8 dereferenceable(200) %16, i32 noundef %29)
  %.not.i.us = icmp eq i8 %32, 0
  %33 = sub nsw i32 0, %31
  %34 = select i1 %.not.i.us, i32 %33, i32 %31
  call void @llvm.lifetime.end.p0(i64 4, ptr nonnull %4) #12
  %35 = icmp sgt i32 %34, 0
  br i1 %35, label %_ZN6icu_77L8matches8EPKhS1_i.exit.thread56, label %_ZN6icu_77L15spanOneBackUTF8ERKNS_10UnicodeSetEPKhi.exit.thread51.us

36:                                               ; preds = %22
  %37 = call noundef signext i8 @_ZNK6icu_7710UnicodeSet8containsEi(ptr noundef nonnull align 8 dereferenceable(200) %16, i32 noundef %27)
  %.not13.i.us = icmp eq i8 %37, 0
  br i1 %.not13.i.us, label %_ZN6icu_77L15spanOneBackUTF8ERKNS_10UnicodeSetEPKhi.exit.thread51.us, label %_ZN6icu_77L8matches8EPKhS1_i.exit.thread56

_ZN6icu_77L15spanOneBackUTF8ERKNS_10UnicodeSetEPKhi.exit.thread51.us: ; preds = %36, %_ZN6icu_77L15spanOneBackUTF8ERKNS_10UnicodeSetEPKhi.exit.us
  %.0.i53.us = phi i32 [ %34, %_ZN6icu_77L15spanOneBackUTF8ERKNS_10UnicodeSetEPKhi.exit.us ], [ -1, %36 ]
  %38 = load ptr, ptr %17, align 8, !tbaa !38
  %39 = load ptr, ptr %18, align 8, !tbaa !36
  %40 = sext i32 %20 to i64
  %41 = getelementptr inbounds i8, ptr %1, i64 %40
  br label %42

42:                                               ; preds = %_ZN6icu_77L15spanOneBackUTF8ERKNS_10UnicodeSetEPKhi.exit.thread51.us, %_ZN6icu_77L8matches8EPKhS1_i.exit.thread.us
  %indvars.iv = phi i64 [ 0, %_ZN6icu_77L15spanOneBackUTF8ERKNS_10UnicodeSetEPKhi.exit.thread51.us ], [ %indvars.iv.next, %_ZN6icu_77L8matches8EPKhS1_i.exit.thread.us ]
  %.03265.us = phi ptr [ %38, %_ZN6icu_77L15spanOneBackUTF8ERKNS_10UnicodeSetEPKhi.exit.thread51.us ], [ %61, %_ZN6icu_77L8matches8EPKhS1_i.exit.thread.us ]
  %43 = getelementptr inbounds nuw i32, ptr %39, i64 %indvars.iv
  %44 = load i32, ptr %43, align 4, !tbaa !33
  %.not43.us = icmp eq i32 %44, 0
  br i1 %.not43.us, label %_ZN6icu_77L8matches8EPKhS1_i.exit.thread.us, label %45

45:                                               ; preds = %42
  %46 = getelementptr inbounds nuw i8, ptr %.038, i64 %indvars.iv
  %47 = load i8, ptr %46, align 1, !tbaa !27
  %.not44.us = icmp eq i8 %47, -1
  %.not45.us = icmp sgt i32 %44, %20
  %or.cond.us = or i1 %.not45.us, %.not44.us
  br i1 %or.cond.us, label %_ZN6icu_77L8matches8EPKhS1_i.exit.thread.us, label %48

48:                                               ; preds = %45
  %49 = sext i32 %44 to i64
  %50 = sub nsw i64 0, %49
  %51 = getelementptr inbounds i8, ptr %41, i64 %50
  br label %52

52:                                               ; preds = %55, %48
  %.04.i.us = phi ptr [ %51, %48 ], [ %57, %55 ]
  %.03.i.us = phi ptr [ %.03265.us, %48 ], [ %56, %55 ]
  %.0.i48.us = phi i32 [ %44, %48 ], [ %58, %55 ]
  %53 = load i8, ptr %.04.i.us, align 1, !tbaa !27
  %54 = load i8, ptr %.03.i.us, align 1, !tbaa !27
  %.not.i49.us = icmp eq i8 %53, %54
  br i1 %.not.i49.us, label %55, label %_ZN6icu_77L8matches8EPKhS1_i.exit.thread.us

55:                                               ; preds = %52
  %56 = getelementptr inbounds nuw i8, ptr %.03.i.us, i64 1
  %57 = getelementptr inbounds nuw i8, ptr %.04.i.us, i64 1
  %58 = add nsw i32 %.0.i48.us, -1
  %59 = icmp sgt i32 %.0.i48.us, 1
  br i1 %59, label %52, label %_ZN6icu_77L8matches8EPKhS1_i.exit.thread56, !llvm.loop !64

_ZN6icu_77L8matches8EPKhS1_i.exit.thread.us:      ; preds = %52, %45, %42
  %60 = sext i32 %44 to i64
  %61 = getelementptr inbounds i8, ptr %.03265.us, i64 %60
  %indvars.iv.next = add nuw nsw i64 %indvars.iv, 1
  %exitcond.not = icmp eq i64 %indvars.iv.next, %wide.trip.count
  br i1 %exitcond.not, label %._crit_edge.us, label %42, !llvm.loop !77

._crit_edge.us:                                   ; preds = %_ZN6icu_77L8matches8EPKhS1_i.exit.thread.us
  %62 = add nsw i32 %.0.i53.us, %20
  %.not47.us = icmp eq i32 %62, 0
  br i1 %.not47.us, label %_ZN6icu_77L8matches8EPKhS1_i.exit.thread56, label %.split.us, !llvm.loop !78

.split:                                           ; preds = %3, %_ZN6icu_77L15spanOneBackUTF8ERKNS_10UnicodeSetEPKhi.exit.thread51
  %.033 = phi i32 [ %.pre-phi, %_ZN6icu_77L15spanOneBackUTF8ERKNS_10UnicodeSetEPKhi.exit.thread51 ], [ %2, %3 ]
  %63 = load ptr, ptr %15, align 8, !tbaa !3
  %64 = call noundef i32 @_ZNK6icu_7710UnicodeSet12spanBackUTF8EPKci17USetSpanCondition(ptr noundef nonnull align 8 dereferenceable(200) %63, ptr noundef %1, i32 noundef %.033, i32 noundef 0)
  %65 = icmp eq i32 %64, 0
  br i1 %65, label %_ZN6icu_77L8matches8EPKhS1_i.exit.thread56, label %66

66:                                               ; preds = %.split
  %67 = add nsw i32 %64, -1
  %68 = sext i32 %67 to i64
  %69 = getelementptr inbounds i8, ptr %1, i64 %68
  %70 = load i8, ptr %69, align 1, !tbaa !27
  %71 = zext i8 %70 to i32
  %72 = icmp sgt i8 %70, -1
  br i1 %72, label %73, label %_ZN6icu_77L15spanOneBackUTF8ERKNS_10UnicodeSetEPKhi.exit

73:                                               ; preds = %66
  %74 = call noundef signext i8 @_ZNK6icu_7710UnicodeSet8containsEi(ptr noundef nonnull align 8 dereferenceable(200) %16, i32 noundef %71)
  %.not13.i = icmp eq i8 %74, 0
  br i1 %.not13.i, label %_ZN6icu_77L15spanOneBackUTF8ERKNS_10UnicodeSetEPKhi.exit.thread51, label %_ZN6icu_77L8matches8EPKhS1_i.exit.thread56

_ZN6icu_77L15spanOneBackUTF8ERKNS_10UnicodeSetEPKhi.exit: ; preds = %66
  call void @llvm.lifetime.start.p0(i64 4, ptr nonnull %4) #12
  store i32 %67, ptr %4, align 4, !tbaa !33
  %75 = call i32 @utf8_prevCharSafeBody_77(ptr noundef nonnull %1, i32 noundef 0, ptr noundef nonnull %4, i32 noundef %71, i8 noundef signext -3)
  %76 = load i32, ptr %4, align 4, !tbaa !33
  %77 = sub nsw i32 %64, %76
  %78 = call noundef signext i8 @_ZNK6icu_7710UnicodeSet8containsEi(ptr noundef nonnull align 8 dereferenceable(200) %16, i32 noundef %75)
  %.not.i = icmp eq i8 %78, 0
  %79 = sub nsw i32 0, %77
  %80 = select i1 %.not.i, i32 %79, i32 %77
  call void @llvm.lifetime.end.p0(i64 4, ptr nonnull %4) #12
  %81 = icmp sgt i32 %80, 0
  br i1 %81, label %_ZN6icu_77L8matches8EPKhS1_i.exit.thread56, label %_ZN6icu_77L15spanOneBackUTF8ERKNS_10UnicodeSetEPKhi.exit._ZN6icu_77L15spanOneBackUTF8ERKNS_10UnicodeSetEPKhi.exit.thread51_crit_edge

_ZN6icu_77L15spanOneBackUTF8ERKNS_10UnicodeSetEPKhi.exit._ZN6icu_77L15spanOneBackUTF8ERKNS_10UnicodeSetEPKhi.exit.thread51_crit_edge: ; preds = %_ZN6icu_77L15spanOneBackUTF8ERKNS_10UnicodeSetEPKhi.exit
  %.pre = add nsw i32 %80, %64
  br label %_ZN6icu_77L15spanOneBackUTF8ERKNS_10UnicodeSetEPKhi.exit.thread51

_ZN6icu_77L15spanOneBackUTF8ERKNS_10UnicodeSetEPKhi.exit.thread51: ; preds = %_ZN6icu_77L15spanOneBackUTF8ERKNS_10UnicodeSetEPKhi.exit._ZN6icu_77L15spanOneBackUTF8ERKNS_10UnicodeSetEPKhi.exit.thread51_crit_edge, %73
  %.pre-phi = phi i32 [ %.pre, %_ZN6icu_77L15spanOneBackUTF8ERKNS_10UnicodeSetEPKhi.exit._ZN6icu_77L15spanOneBackUTF8ERKNS_10UnicodeSetEPKhi.exit.thread51_crit_edge ], [ %67, %73 ]
  %.not47 = icmp eq i32 %.pre-phi, 0
  br i1 %.not47, label %_ZN6icu_77L8matches8EPKhS1_i.exit.thread56, label %.split, !llvm.loop !78

_ZN6icu_77L8matches8EPKhS1_i.exit.thread56:       ; preds = %.split, %_ZN6icu_77L15spanOneBackUTF8ERKNS_10UnicodeSetEPKhi.exit.thread51, %_ZN6icu_77L15spanOneBackUTF8ERKNS_10UnicodeSetEPKhi.exit, %73, %._crit_edge.us, %36, %_ZN6icu_77L15spanOneBackUTF8ERKNS_10UnicodeSetEPKhi.exit.us, %.split.us, %55
  %.1 = phi i32 [ %20, %55 ], [ %20, %36 ], [ %20, %_ZN6icu_77L15spanOneBackUTF8ERKNS_10UnicodeSetEPKhi.exit.us ], [ 0, %._crit_edge.us ], [ 0, %.split.us ], [ %64, %73 ], [ %64, %_ZN6icu_77L15spanOneBackUTF8ERKNS_10UnicodeSetEPKhi.exit ], [ 0, %_ZN6icu_77L15spanOneBackUTF8ERKNS_10UnicodeSetEPKhi.exit.thread51 ], [ 0, %.split ]
  ret i32 %.1
}